target datalayout = "e-m:e-p270:32:32-p271:32:32-p272:64:64-i64:64-i128:128-f80:128-n8:16:32:64-S128"
target triple = "x86_64-pc-linux-gnu"

%struct._zend_array = type { %struct._zend_refcounted_h, %union.anon.4, i32, %union.anon.6, i32, i32, i32, i32, i64, ptr }
%struct._zend_refcounted_h = type { i32, %union.anon.3 }
%union.anon.3 = type { i32 }
%union.anon.4 = type { i32 }
%union.anon.6 = type { ptr }
%struct._zval_struct = type { %union._zend_value, %union.anon, %union.anon.2 }
%union._zend_value = type { i64 }
%union.anon = type { i32 }
%union.anon.2 = type { i32 }
%struct._zend_attribute = type { ptr, ptr, i32, i32, i32, i32, [1 x %struct.zend_attribute_arg] }
%struct.zend_attribute_arg = type { ptr, %struct._zval_struct }
%struct._zend_string = type { %struct._zend_refcounted_h, i64, i64, [1 x i8] }

; Function Attrs: nounwind uwtable
define internal ptr @get_attribute_str(ptr noundef %0, ptr noundef %1, i64 noundef %2, i32 noundef %3) #0 {
  %5 = alloca ptr, align 8
  %6 = alloca ptr, align 8
  %7 = alloca i64, align 8
  %8 = alloca ptr, align 8
  %9 = alloca ptr, align 8
  %10 = alloca ptr, align 8
  %11 = alloca ptr, align 8
  %12 = alloca i64, align 8
  %13 = alloca i32, align 4
  %14 = alloca ptr, align 8
  %15 = alloca ptr, align 8
  %16 = alloca i64, align 8
  %17 = alloca ptr, align 8
  %18 = alloca ptr, align 8
  store ptr %0, ptr %10, align 8
  store ptr %1, ptr %11, align 8
  store i64 %2, ptr %12, align 8
  store i32 %3, ptr %13, align 4
  %19 = load ptr, ptr %10, align 8
  %20 = icmp ne ptr %19, null
  br i1 %20, label %21, label %98

21:                                               ; preds = %4
  br label %22

22:                                               ; preds = %21
  %23 = load ptr, ptr %10, align 8
  store ptr %23, ptr %15, align 8
  store i64 0, ptr %16, align 8
  %24 = load ptr, ptr %15, align 8
  %25 = getelementptr inbounds %struct._zend_array, ptr %24, i32 0, i32 3
  %26 = load ptr, ptr %25, align 8
  %27 = getelementptr inbounds %struct._zval_struct, ptr %26, i64 0
  store ptr %27, ptr %17, align 8
  %28 = load ptr, ptr %15, align 8
  %29 = getelementptr inbounds %struct._zend_array, ptr %28, i32 0, i32 3
  %30 = load ptr, ptr %29, align 8
  %31 = load ptr, ptr %15, align 8
  %32 = getelementptr inbounds %struct._zend_array, ptr %31, i32 0, i32 4
  %33 = load i32, ptr %32, align 8
  %34 = zext i32 %33 to i64
  %35 = getelementptr inbounds %struct._zval_struct, ptr %30, i64 %34
  store ptr %35, ptr %18, align 8
  %36 = load ptr, ptr %15, align 8
  %37 = getelementptr inbounds %struct._zend_array, ptr %36, i32 0, i32 1
  %38 = load i32, ptr %37, align 8
  %39 = and i32 %38, 4
  %40 = icmp ne i32 %39, 0
  call void @llvm.assume(i1 %40)
  br label %41

41:                                               ; preds = %91, %22
  %42 = load ptr, ptr %17, align 8
  %43 = load ptr, ptr %18, align 8
  %44 = icmp ne ptr %42, %43
  br i1 %44, label %45, label %96

45:                                               ; preds = %41
  %46 = load ptr, ptr %17, align 8
  store ptr %46, ptr %8, align 8
  %47 = load ptr, ptr %8, align 8
  %48 = getelementptr inbounds %struct._zval_struct, ptr %47, i32 0, i32 1
  %49 = load i8, ptr %48, align 8
  %50 = zext i8 %49 to i32
  %51 = icmp eq i32 %50, 0
  %52 = xor i1 %51, true
  %53 = xor i1 %52, true
  %54 = zext i1 %53 to i32
  %55 = sext i32 %54 to i64
  %56 = icmp ne i64 %55, 0
  br i1 %56, label %57, label %58

57:                                               ; preds = %45
  br label %91

58:                                               ; preds = %45
  %59 = load ptr, ptr %17, align 8
  %60 = getelementptr inbounds %struct._zval_struct, ptr %59, i32 0, i32 0
  %61 = load ptr, ptr %60, align 8
  store ptr %61, ptr %14, align 8
  %62 = load ptr, ptr %14, align 8
  %63 = getelementptr inbounds %struct._zend_attribute, ptr %62, i32 0, i32 4
  %64 = load i32, ptr %63, align 8
  %65 = load i32, ptr %13, align 4
  %66 = icmp eq i32 %64, %65
  br i1 %66, label %67, label %90

67:                                               ; preds = %58
  %68 = load ptr, ptr %14, align 8
  %69 = getelementptr inbounds %struct._zend_attribute, ptr %68, i32 0, i32 1
  %70 = load ptr, ptr %69, align 8
  %71 = load ptr, ptr %11, align 8
  %72 = load i64, ptr %12, align 8
  store ptr %70, ptr %5, align 8
  store ptr %71, ptr %6, align 8
  store i64 %72, ptr %7, align 8
  %73 = load ptr, ptr %5, align 8
  %74 = getelementptr inbounds %struct._zend_string, ptr %73, i32 0, i32 2
  %75 = load i64, ptr %74, align 8
  %76 = load i64, ptr %7, align 8
  %77 = icmp eq i64 %75, %76
  br i1 %77, label %78, label %86

78:                                               ; preds = %67
  %79 = load ptr, ptr %5, align 8
  %80 = getelementptr inbounds %struct._zend_string, ptr %79, i32 0, i32 3
  %81 = load ptr, ptr %6, align 8
  %82 = load i64, ptr %7, align 8
  %83 = call i32 @memcmp(ptr noundef %80, ptr noundef %81, i64 noundef %82) #13
  %84 = icmp ne i32 %83, 0
  %85 = xor i1 %84, true
  br label %86

86:                                               ; preds = %78, %67
  %87 = phi i1 [ false, %67 ], [ %85, %78 ]
  br i1 %87, label %88, label %90

88:                                               ; preds = %86
  %89 = load ptr, ptr %14, align 8
  store ptr %89, ptr %9, align 8
  br label %99

90:                                               ; preds = %86, %58
  br label %91

91:                                               ; preds = %90, %57
  %92 = load ptr, ptr %17, align 8
  %93 = getelementptr inbounds %struct._zval_struct, ptr %92, i32 1
  store ptr %93, ptr %17, align 8
  %94 = load i64, ptr %16, align 8
  %95 = add i64 %94, 1
  store i64 %95, ptr %16, align 8
  br label %41

96:                                               ; preds = %41
  br label %97

97:                                               ; preds = %96
  br label %98

98:                                               ; preds = %97, %4
  store ptr null, ptr %9, align 8
  br label %99

99:                                               ; preds = %98, %88
  %100 = load ptr, ptr %9, align 8
  ret ptr %100
}

; Function Attrs: nounwind uwtable
define ptr @zend_get_parameter_attribute_str(ptr noundef %0, ptr noundef %1, i64 noundef %2, i32 noundef %3) #0 {
  %5 = alloca ptr, align 8
  %6 = alloca ptr, align 8
  %7 = alloca i64, align 8
  %8 = alloca i32, align 4
  store ptr %0, ptr %5, align 8
  store ptr %1, ptr %6, align 8
  store i64 %2, ptr %7, align 8
  store i32 %3, ptr %8, align 4
  %9 = load ptr, ptr %5, align 8
  %10 = load ptr, ptr %6, align 8
  %11 = load i64, ptr %7, align 8
  %12 = load i32, ptr %8, align 4
  %13 = add i32 %12, 1
  %14 = call ptr @get_attribute_str(ptr noundef %9, ptr noundef %10, i64 noundef %11, i32 noundef %13)
  ret ptr %14
}