; Function Attrs: nofree nounwind memory(read, inaccessiblemem: write) uwtable
define ptr @zend_get_parameter_attribute_str(ptr noundef readonly %0, ptr nocapture noundef readonly %1, i64 noundef %2, i32 noundef %3) local_unnamed_addr #4 {
  %5 = add i32 %3, 1
  %.not.i = icmp eq ptr %0, null
  br i1 %.not.i, label %get_attribute_str.exit, label %6

6:                                                ; preds = %4
  %7 = getelementptr inbounds i8, ptr %0, i64 16
  %8 = load ptr, ptr %7, align 8
  %9 = getelementptr inbounds i8, ptr %0, i64 24
  %10 = load i32, ptr %9, align 8
  %11 = zext i32 %10 to i64
  %12 = getelementptr inbounds %struct._zval_struct, ptr %8, i64 %11
  %13 = getelementptr inbounds i8, ptr %0, i64 8
  %14 = load i32, ptr %13, align 8
  %15 = and i32 %14, 4
  %16 = icmp ne i32 %15, 0
  tail call void @llvm.assume(i1 %16)
  %.not2830.i = icmp eq i32 %10, 0
  br i1 %.not2830.i, label %get_attribute_str.exit, label %.lr.ph.i

.lr.ph.i:                                         ; preds = %6, %.critedge.i
  %.02431.i = phi ptr [ %33, %.critedge.i ], [ %8, %6 ]
  %17 = getelementptr inbounds i8, ptr %.02431.i, i64 8
  %18 = load i8, ptr %17, align 8
  %19 = icmp eq i8 %18, 0
  br i1 %19, label %.critedge.i, label %20

20:                                               ; preds = %.lr.ph.i
  %21 = load ptr, ptr %.02431.i, align 8
  %22 = getelementptr inbounds i8, ptr %21, i64 24
  %23 = load i32, ptr %22, align 8
  %24 = icmp eq i32 %23, %5
  br i1 %24, label %25, label %.critedge.i

25:                                               ; preds = %20
  %26 = getelementptr inbounds i8, ptr %21, i64 8
  %27 = load ptr, ptr %26, align 8
  %28 = getelementptr inbounds i8, ptr %27, i64 16
  %29 = load i64, ptr %28, align 8
  %30 = icmp eq i64 %29, %2
  br i1 %30, label %31, label %.critedge.i

31:                                               ; preds = %25
  %32 = getelementptr inbounds i8, ptr %27, i64 24
  %bcmp.i = tail call i32 @bcmp(ptr nonnull %32, ptr %1, i64 %2)
  %.not29.i = icmp eq i32 %bcmp.i, 0
  br i1 %.not29.i, label %get_attribute_str.exit, label %.critedge.i

.critedge.i:                                      ; preds = %31, %25, %20, %.lr.ph.i
  %33 = getelementptr inbounds i8, ptr %.02431.i, i64 16
  %.not28.i = icmp eq ptr %33, %12
  br i1 %.not28.i, label %get_attribute_str.exit, label %.lr.ph.i

get_attribute_str.exit:                           ; preds = %31, %.critedge.i, %4, %6
  %.0.i = phi ptr [ null, %4 ], [ null, %6 ], [ null, %.critedge.i ], [ %21, %31 ]
  ret ptr %.0.i
}